; Function Attrs: mustprogress null_pointer_is_valid sspstrong uwtable
define noundef ptr @_ZN25ServiceResponseTimeDialog15createSrtDialogER7QWidget7QStringS2_R11CaptureFile(ptr noundef align 8 dereferenceable(40) %0, ptr noundef %1, ptr noundef readonly captures(none) %2, ptr noundef align 8 dereferenceable(48) %3) #2 align 2 personality ptr @__gxx_personality_v0 {
  %5 = alloca %class.QString, align 8
  %6 = load ptr, ptr @_ZL15cfg_str_to_srt_, align 8
  %.not.i = icmp eq ptr %6, null
  br i1 %.not.i, label %_ZN7QStringD2Ev.exit, label %_ZNK5QHashIK7QStringP12register_srtE8containsERS1_.exit

_ZNK5QHashIK7QStringP12register_srtE8containsERS1_.exit: ; preds = %4
  %7 = tail call noundef ptr @_ZNK12QHashPrivate4DataINS_4NodeIK7QStringP12register_srtEEE8findNodeERS3_(ptr noundef nonnull align 8 dereferenceable_or_null(40) %6, ptr noundef align 8 dereferenceable(24) %1) #26
  %.not = icmp eq ptr %7, null
  br i1 %.not, label %_ZN7QStringD2Ev.exit, label %8

8:                                                ; preds = %_ZNK5QHashIK7QStringP12register_srtE8containsERS1_.exit
  %9 = tail call noundef align 8 dereferenceable(8) ptr @_ZN5QHashIK7QStringP12register_srtEixERS1_(ptr noundef nonnull align 8 dereferenceable_or_null(8) @_ZL15cfg_str_to_srt_, ptr noundef align 8 dereferenceable(24) %1)
  %10 = load ptr, ptr %9, align 8
  %11 = tail call noalias noundef dereferenceable_or_null(256) ptr @_Znwm(i64 noundef 256) #29
  %12 = load ptr, ptr %2, align 8
  store ptr %12, ptr %5, align 8
  %13 = getelementptr inbounds nuw i8, ptr %5, i64 8
  %14 = getelementptr inbounds nuw i8, ptr %2, i64 8
  %15 = load ptr, ptr %14, align 8
  store ptr %15, ptr %13, align 8
  %16 = getelementptr inbounds nuw i8, ptr %5, i64 16
  %17 = getelementptr inbounds nuw i8, ptr %2, i64 16
  %18 = load i64, ptr %17, align 8
  store i64 %18, ptr %16, align 8
  %.not.i.i.i = icmp eq ptr %12, null
  br i1 %.not.i.i.i, label %_ZN7QStringC2ERKS_.exit, label %19

19:                                               ; preds = %8
  %20 = atomicrmw add ptr %12, i32 1 seq_cst, align 4
  br label %_ZN7QStringC2ERKS_.exit

_ZN7QStringC2ERKS_.exit:                          ; preds = %8, %19
  invoke void @_ZN25ServiceResponseTimeDialogC1ER7QWidgetR11CaptureFileP12register_srt7QStringi(ptr noundef align 8 dereferenceable_or_null(256) %11, ptr noundef align 8 dereferenceable(40) %0, ptr noundef align 8 dereferenceable(48) %3, ptr noundef %10, ptr noundef nonnull %5, i32 noundef 0)
          to label %21 unwind label %26

21:                                               ; preds = %_ZN7QStringC2ERKS_.exit
  %22 = load ptr, ptr %5, align 8
  %.not.i.i.i6 = icmp eq ptr %22, null
  br i1 %.not.i.i.i6, label %_ZN7QStringD2Ev.exit, label %_ZN17QArrayDataPointerIDsE5derefEv.exit.i.i

_ZN17QArrayDataPointerIDsE5derefEv.exit.i.i:      ; preds = %21
  %23 = atomicrmw sub ptr %22, i32 1 seq_cst, align 4
  %.not.i.i = icmp eq i32 %23, 1
  br i1 %.not.i.i, label %24, label %_ZN7QStringD2Ev.exit

24:                                               ; preds = %_ZN17QArrayDataPointerIDsE5derefEv.exit.i.i
  %25 = load ptr, ptr %5, align 8
  call void @_ZN10QArrayData10deallocateEPS_xx(ptr noundef %25, i64 noundef 2, i64 noundef 8) #26
  br label %_ZN7QStringD2Ev.exit

26:                                               ; preds = %_ZN7QStringC2ERKS_.exit
  %27 = landingpad { ptr, i32 }
          cleanup
  %28 = load ptr, ptr %5, align 8
  %.not.i.i.i7 = icmp eq ptr %28, null
  br i1 %.not.i.i.i7, label %_ZN7QStringD2Ev.exit10, label %_ZN17QArrayDataPointerIDsE5derefEv.exit.i.i8

_ZN17QArrayDataPointerIDsE5derefEv.exit.i.i8:     ; preds = %26
  %29 = atomicrmw sub ptr %28, i32 1 seq_cst, align 4
  %.not.i.i9 = icmp eq i32 %29, 1
  br i1 %.not.i.i9, label %30, label %_ZN7QStringD2Ev.exit10

30:                                               ; preds = %_ZN17QArrayDataPointerIDsE5derefEv.exit.i.i8
  %31 = load ptr, ptr %5, align 8
  call void @_ZN10QArrayData10deallocateEPS_xx(ptr noundef %31, i64 noundef 2, i64 noundef 8) #26
  br label %_ZN7QStringD2Ev.exit10

_ZN7QStringD2Ev.exit10:                           ; preds = %26, %_ZN17QArrayDataPointerIDsE5derefEv.exit.i.i8, %30
  call void @_ZdlPvm(ptr noundef %11, i64 noundef 256) #27
  resume { ptr, i32 } %27

_ZN7QStringD2Ev.exit:                             ; preds = %4, %24, %_ZN17QArrayDataPointerIDsE5derefEv.exit.i.i, %21, %_ZNK5QHashIK7QStringP12register_srtE8containsERS1_.exit
  %.0 = phi ptr [ null, %_ZNK5QHashIK7QStringP12register_srtE8containsERS1_.exit ], [ %11, %21 ], [ %11, %_ZN17QArrayDataPointerIDsE5derefEv.exit.i.i ], [ %11, %24 ], [ null, %4 ]
  ret ptr %.0
}